; Function Attrs: mustprogress uwtable
define void @_ZN32pxrInternal_v0_24__pxrReserved__22UsdImagingPlaneAdapter15GetMeshTopologyEv(ptr dead_on_unwind noalias nocapture writable writeonly sret(%"class.pxrInternal_v0_24__pxrReserved__::VtValue") align 8 %0) local_unnamed_addr #0 align 2 personality ptr @__gxx_personality_v0 {
  %2 = alloca %"class.pxrInternal_v0_24__pxrReserved__::HdMeshTopology", align 8
  %3 = tail call noundef nonnull align 8 dereferenceable(369) ptr @_ZN32pxrInternal_v0_24__pxrReserved__26UsdImagingGetPlaneTopologyEv()
  call void @_ZN32pxrInternal_v0_24__pxrReserved__14HdMeshTopologyC1ERKNS_17PxOsdMeshTopologyEi(ptr noundef nonnull align 8 dereferenceable(496) %2, ptr noundef nonnull align 8 dereferenceable(369) %3, i32 noundef 0)
  %4 = getelementptr inbounds nuw i8, ptr %0, i64 8
  store ptr @_ZZN32pxrInternal_v0_24__pxrReserved__7VtValue11GetTypeInfoINS_14HdMeshTopologyEEENS_16TfPointerAndBitsIKNS0_9_TypeInfoEEEvE2ti, ptr %4, align 8
  %5 = invoke noalias noundef nonnull dereferenceable(504) ptr @_Znwm(i64 noundef 504) #16
          to label %.noexc unwind label %11

.noexc:                                           ; preds = %1
  invoke void @_ZN32pxrInternal_v0_24__pxrReserved__14HdMeshTopologyC1ERKS0_i(ptr noundef nonnull align 8 dereferenceable(496) %5, ptr noundef nonnull align 8 dereferenceable(496) %2, i32 noundef 0)
          to label %8 unwind label %6

6:                                                ; preds = %.noexc
  %7 = landingpad { ptr, i32 }
          cleanup
  call void @_ZdlPvm(ptr noundef nonnull %5, i64 noundef 504) #18
  br label %.body

8:                                                ; preds = %.noexc
  %9 = getelementptr inbounds nuw i8, ptr %5, i64 496
  store atomic i32 0, ptr %9 seq_cst, align 4
  store ptr %5, ptr %0, align 8
  %10 = atomicrmw add ptr %9, i32 1 monotonic, align 4
  call void @_ZN32pxrInternal_v0_24__pxrReserved__14HdMeshTopologyD1Ev(ptr noundef nonnull align 8 dereferenceable(496) %2) #17
  ret void

11:                                               ; preds = %1
  %12 = landingpad { ptr, i32 }
          cleanup
  br label %.body

.body:                                            ; preds = %6, %11
  %eh.lpad-body = phi { ptr, i32 } [ %12, %11 ], [ %7, %6 ]
  call void @_ZN32pxrInternal_v0_24__pxrReserved__14HdMeshTopologyD1Ev(ptr noundef nonnull align 8 dereferenceable(496) %2) #17
  resume { ptr, i32 } %eh.lpad-body
}